; Function Attrs: mustprogress uwtable
define hidden void @_ZNK6Assimp11MD3Importer8ReadSkinERNS_8Q3Shader8SkinDataE(ptr noundef nonnull align 8 dereferenceable(296) %this, ptr noundef nonnull align 8 dereferenceable(24) %fill) local_unnamed_addr #0 align 2 personality ptr @__gxx_personality_v0 {
entry:
  %skin_file = alloca %"class.std::__cxx11::basic_string", align 8
  %ref.tmp = alloca %"class.std::__cxx11::basic_string", align 8
  %ref.tmp9 = alloca %"class.std::__cxx11::basic_string", align 8
  %ref.tmp10 = alloca %"class.std::__cxx11::basic_string", align 8
  %ref.tmp11 = alloca %"class.std::__cxx11::basic_string", align 8
  %filename = getelementptr inbounds i8, ptr %this, i64 248
  %call = tail call noundef i64 @_ZNKSt7__cxx1112basic_stringIcSt11char_traitsIcESaIcEE12find_last_ofEcm(ptr noundef nonnull align 8 dereferenceable(32) %filename, i8 noundef signext 95, i64 noundef -1) #17
  %cmp = icmp eq i64 %call, -1
  br i1 %cmp, label %if.then, label %if.end8

if.then:                                          ; preds = %entry
  %call3 = tail call noundef i64 @_ZNKSt7__cxx1112basic_stringIcSt11char_traitsIcESaIcEE12find_last_ofEcm(ptr noundef nonnull align 8 dereferenceable(32) %filename, i8 noundef signext 46, i64 noundef -1) #17
  %cmp4 = icmp eq i64 %call3, -1
  br i1 %cmp4, label %if.then5, label %if.end8

if.then5:                                         ; preds = %if.then
  %call7 = tail call noundef i64 @_ZNKSt7__cxx1112basic_stringIcSt11char_traitsIcESaIcEE4sizeEv(ptr noundef nonnull align 8 dereferenceable(32) %filename) #17
  br label %if.end8

if.end8:                                          ; preds = %if.then, %if.then5, %entry
  %s.0 = phi i64 [ %call7, %if.then5 ], [ %call3, %if.then ], [ %call, %entry ]
  %path = getelementptr inbounds i8, ptr %this, i64 216
  call void @_ZNKSt7__cxx1112basic_stringIcSt11char_traitsIcESaIcEE6substrEmm(ptr nonnull sret(%"class.std::__cxx11::basic_string") align 8 %ref.tmp11, ptr noundef nonnull align 8 dereferenceable(32) %filename, i64 noundef 0, i64 noundef %s.0)
  %call.i8 = invoke noundef nonnull align 8 dereferenceable(32) ptr @_ZNSt7__cxx1112basic_stringIcSt11char_traitsIcESaIcEE6insertEmRKS4_(ptr noundef nonnull align 8 dereferenceable(32) %ref.tmp11, i64 noundef 0, ptr noundef nonnull align 8 dereferenceable(32) %path)
          to label %invoke.cont unwind label %lpad

invoke.cont:                                      ; preds = %if.end8
  call void @_ZNSt7__cxx1112basic_stringIcSt11char_traitsIcESaIcEEC1EOS4_(ptr noundef nonnull align 8 dereferenceable(32) %ref.tmp10, ptr noundef nonnull align 8 dereferenceable(32) %call.i8) #17
  %call.i9 = invoke noundef nonnull align 8 dereferenceable(32) ptr @_ZNSt7__cxx1112basic_stringIcSt11char_traitsIcESaIcEE6appendEPKc(ptr noundef nonnull align 8 dereferenceable(32) %ref.tmp10, ptr noundef nonnull @.str.57)
          to label %invoke.cont14 unwind label %lpad13

invoke.cont14:                                    ; preds = %invoke.cont
  call void @_ZNSt7__cxx1112basic_stringIcSt11char_traitsIcESaIcEEC1EOS4_(ptr noundef nonnull align 8 dereferenceable(32) %ref.tmp9, ptr noundef nonnull align 8 dereferenceable(32) %call.i9) #17
  %configSkinFile = getelementptr inbounds i8, ptr %this, i64 80
  %call.i10 = invoke noundef nonnull align 8 dereferenceable(32) ptr @_ZNSt7__cxx1112basic_stringIcSt11char_traitsIcESaIcEE6appendERKS4_(ptr noundef nonnull align 8 dereferenceable(32) %ref.tmp9, ptr noundef nonnull align 8 dereferenceable(32) %configSkinFile)
          to label %invoke.cont16 unwind label %lpad15

invoke.cont16:                                    ; preds = %invoke.cont14
  call void @_ZNSt7__cxx1112basic_stringIcSt11char_traitsIcESaIcEEC1EOS4_(ptr noundef nonnull align 8 dereferenceable(32) %ref.tmp, ptr noundef nonnull align 8 dereferenceable(32) %call.i10) #17
  %call.i11 = invoke noundef nonnull align 8 dereferenceable(32) ptr @_ZNSt7__cxx1112basic_stringIcSt11char_traitsIcESaIcEE6appendEPKc(ptr noundef nonnull align 8 dereferenceable(32) %ref.tmp, ptr noundef nonnull @.str.58)
          to label %invoke.cont18 unwind label %lpad17

invoke.cont18:                                    ; preds = %invoke.cont16
  call void @_ZNSt7__cxx1112basic_stringIcSt11char_traitsIcESaIcEEC1EOS4_(ptr noundef nonnull align 8 dereferenceable(32) %skin_file, ptr noundef nonnull align 8 dereferenceable(32) %call.i11) #17
  call void @_ZNSt7__cxx1112basic_stringIcSt11char_traitsIcESaIcEED1Ev(ptr noundef nonnull align 8 dereferenceable(32) %ref.tmp) #17
  call void @_ZNSt7__cxx1112basic_stringIcSt11char_traitsIcESaIcEED1Ev(ptr noundef nonnull align 8 dereferenceable(32) %ref.tmp9) #17
  call void @_ZNSt7__cxx1112basic_stringIcSt11char_traitsIcESaIcEED1Ev(ptr noundef nonnull align 8 dereferenceable(32) %ref.tmp10) #17
  call void @_ZNSt7__cxx1112basic_stringIcSt11char_traitsIcESaIcEED1Ev(ptr noundef nonnull align 8 dereferenceable(32) %ref.tmp11) #17
  %mIOHandler = getelementptr inbounds i8, ptr %this, i64 288
  %0 = load ptr, ptr %mIOHandler, align 8
  %call23 = invoke noundef zeroext i1 @_ZN6Assimp8Q3Shader8LoadSkinERNS0_8SkinDataERKNSt7__cxx1112basic_stringIcSt11char_traitsIcESaIcEEEPNS_8IOSystemE(ptr noundef nonnull align 8 dereferenceable(24) %fill, ptr noundef nonnull align 8 dereferenceable(32) %skin_file, ptr noundef %0)
          to label %invoke.cont22 unwind label %lpad21

invoke.cont22:                                    ; preds = %invoke.cont18
  call void @_ZNSt7__cxx1112basic_stringIcSt11char_traitsIcESaIcEED1Ev(ptr noundef nonnull align 8 dereferenceable(32) %skin_file) #17
  ret void

lpad:                                             ; preds = %if.end8
  %1 = landingpad { ptr, i32 }
          cleanup
  br label %eh.resume

lpad13:                                           ; preds = %invoke.cont
  %2 = landingpad { ptr, i32 }
          cleanup
  br label %ehcleanup19

lpad15:                                           ; preds = %invoke.cont14
  %3 = landingpad { ptr, i32 }
          cleanup
  br label %ehcleanup

lpad17:                                           ; preds = %invoke.cont16
  %4 = landingpad { ptr, i32 }
          cleanup
  call void @_ZNSt7__cxx1112basic_stringIcSt11char_traitsIcESaIcEED1Ev(ptr noundef nonnull align 8 dereferenceable(32) %ref.tmp) #17
  br label %ehcleanup

ehcleanup:                                        ; preds = %lpad17, %lpad15
  %.pn = phi { ptr, i32 } [ %4, %lpad17 ], [ %3, %lpad15 ]
  call void @_ZNSt7__cxx1112basic_stringIcSt11char_traitsIcESaIcEED1Ev(ptr noundef nonnull align 8 dereferenceable(32) %ref.tmp9) #17
  br label %ehcleanup19

ehcleanup19:                                      ; preds = %ehcleanup, %lpad13
  %.pn.pn = phi { ptr, i32 } [ %.pn, %ehcleanup ], [ %2, %lpad13 ]
  call void @_ZNSt7__cxx1112basic_stringIcSt11char_traitsIcESaIcEED1Ev(ptr noundef nonnull align 8 dereferenceable(32) %ref.tmp10) #17
  br label %eh.resume

lpad21:                                           ; preds = %invoke.cont18
  %5 = landingpad { ptr, i32 }
          cleanup
  br label %eh.resume

eh.resume:                                        ; preds = %lpad, %ehcleanup19, %lpad21
  %skin_file.sink = phi ptr [ %skin_file, %lpad21 ], [ %ref.tmp11, %ehcleanup19 ], [ %ref.tmp11, %lpad ]
  %.pn6 = phi { ptr, i32 } [ %5, %lpad21 ], [ %.pn.pn, %ehcleanup19 ], [ %1, %lpad ]
  call void @_ZNSt7__cxx1112basic_stringIcSt11char_traitsIcESaIcEED1Ev(ptr noundef nonnull align 8 dereferenceable(32) %skin_file.sink) #17
  resume { ptr, i32 } %.pn6
}